; Function Attrs: mustprogress uwtable
define dso_local void @_ZN4base8internal10JSONParser13StringBuilder7ConvertEv(ptr nocapture noundef nonnull align 8 dereferenceable(24) %this) local_unnamed_addr #2 align 2 personality ptr @__gxx_personality_v0 {
entry:
  %ref.tmp = alloca %"class.std::allocator", align 1
  %string_ = getelementptr inbounds i8, ptr %this, i64 16
  %0 = load ptr, ptr %string_, align 8
  %tobool.not = icmp eq ptr %0, null
  br i1 %tobool.not, label %if.end, label %return

if.end:                                           ; preds = %entry
  %call = tail call noalias noundef nonnull dereferenceable(32) ptr @_Znwm(i64 noundef 32) #16
  %1 = load ptr, ptr %this, align 8
  %length_ = getelementptr inbounds i8, ptr %this, i64 8
  %2 = load i64, ptr %length_, align 8
  call void @_ZNSaIcEC1Ev(ptr noundef nonnull align 1 dereferenceable(1) %ref.tmp) #17
  invoke void @_ZNSt7__cxx1112basic_stringIcSt11char_traitsIcESaIcEEC1EPKcmRKS3_(ptr noundef nonnull align 8 dereferenceable(32) %call, ptr noundef %1, i64 noundef %2, ptr noundef nonnull align 1 dereferenceable(1) %ref.tmp)
          to label %invoke.cont unwind label %lpad

invoke.cont:                                      ; preds = %if.end
  store ptr %call, ptr %string_, align 8
  call void @_ZNSaIcED1Ev(ptr noundef nonnull align 1 dereferenceable(1) %ref.tmp) #17
  br label %return

return:                                           ; preds = %entry, %invoke.cont
  ret void

lpad:                                             ; preds = %if.end
  %3 = landingpad { ptr, i32 }
          cleanup
  call void @_ZNSaIcED1Ev(ptr noundef nonnull align 1 dereferenceable(1) %ref.tmp) #17
  call void @_ZdlPv(ptr noundef nonnull %call) #18
  resume { ptr, i32 } %3
}